target datalayout = "e-m:e-p270:32:32-p271:32:32-p272:64:64-i64:64-i128:128-f80:128-n8:16:32:64-S128"
target triple = "x86_64-pc-linux-gnu"

%struct.stat = type { i64, i64, i64, i32, i32, i32, i32, i64, i64, i64, i64, %struct.timespec, %struct.timespec, %struct.timespec, [3 x i64] }
%struct.timespec = type { i64, i64 }
%struct.my_statx = type { i32, i32, i64, i32, i32, i32, i16, [1 x i16], i64, i64, i64, i64, %struct.my_statx_timestamp, %struct.my_statx_timestamp, %struct.my_statx_timestamp, %struct.my_statx_timestamp, i32, i32, i32, i32, [14 x i64] }
%struct.my_statx_timestamp = type { i64, i32, i32 }

@my_statx_func = internal global ptr null, align 8

; Function Attrs: nounwind uwtable
define internal i32 @statx_wrapper(i32 noundef %0, ptr noalias noundef %1, i32 noundef %2, i32 noundef %3, ptr noalias noundef %4) #0 {
  %6 = alloca i32, align 4
  %7 = alloca ptr, align 8
  %8 = alloca i32, align 4
  %9 = alloca i32, align 4
  %10 = alloca ptr, align 8
  store i32 %0, ptr %6, align 4
  store ptr %1, ptr %7, align 8
  store i32 %2, ptr %8, align 4
  store i32 %3, ptr %9, align 4
  store ptr %4, ptr %10, align 8
  %11 = load ptr, ptr @my_statx_func, align 8
  %12 = load i32, ptr %6, align 4
  %13 = load ptr, ptr %7, align 8
  %14 = load i32, ptr %8, align 4
  %15 = load i32, ptr %9, align 4
  %16 = load ptr, ptr %10, align 8
  %17 = call i32 %11(i32 noundef %12, ptr noundef %13, i32 noundef %14, i32 noundef %15, ptr noundef %16)
  ret i32 %17
}

; Function Attrs: nounwind uwtable
define i32 @Java_sun_nio_fs_UnixNativeDispatcher_stat0(ptr noundef %0, ptr noundef %1, i64 noundef %2, ptr noundef %3) #0 {
  %5 = alloca i32, align 4
  %6 = alloca ptr, align 8
  %7 = alloca ptr, align 8
  %8 = alloca i64, align 8
  %9 = alloca ptr, align 8
  %10 = alloca i32, align 4
  %11 = alloca %struct.stat, align 8
  %12 = alloca ptr, align 8
  %13 = alloca %struct.my_statx, align 8
  %14 = alloca i32, align 4
  %15 = alloca i32, align 4
  store ptr %0, ptr %6, align 8
  store ptr %1, ptr %7, align 8
  store i64 %2, ptr %8, align 8
  store ptr %3, ptr %9, align 8
  %16 = load i64, ptr %8, align 8
  %17 = inttoptr i64 %16 to ptr
  store ptr %17, ptr %12, align 8
  store i32 0, ptr %14, align 4
  store i32 4095, ptr %15, align 4
  %18 = load ptr, ptr @my_statx_func, align 8
  %19 = icmp ne ptr %18, null
  br i1 %19, label %20, label %46

20:                                               ; preds = %4
  br label %21

21:                                               ; preds = %20
  br label %22

22:                                               ; preds = %34, %21
  %23 = load ptr, ptr %12, align 8
  %24 = load i32, ptr %14, align 4
  %25 = load i32, ptr %15, align 4
  %26 = call i32 @statx_wrapper(i32 noundef -100, ptr noundef %23, i32 noundef %24, i32 noundef %25, ptr noundef %13)
  store i32 %26, ptr %10, align 4
  br label %27

27:                                               ; preds = %22
  %28 = load i32, ptr %10, align 4
  %29 = icmp eq i32 %28, -1
  br i1 %29, label %30, label %34

30:                                               ; preds = %27
  %31 = call ptr @__errno_location() #7
  %32 = load i32, ptr %31, align 4
  %33 = icmp eq i32 %32, 4
  br label %34

34:                                               ; preds = %30, %27
  %35 = phi i1 [ false, %27 ], [ %33, %30 ]
  br i1 %35, label %22, label %36, !llvm.loop !12

36:                                               ; preds = %34
  br label %37

37:                                               ; preds = %36
  %38 = load i32, ptr %10, align 4
  %39 = icmp eq i32 %38, 0
  br i1 %39, label %40, label %43

40:                                               ; preds = %37
  %41 = load ptr, ptr %6, align 8
  %42 = load ptr, ptr %9, align 8
  call void @copy_statx_attributes(ptr noundef %41, ptr noundef %13, ptr noundef %42)
  store i32 0, ptr %5, align 4
  br label %70

43:                                               ; preds = %37
  %44 = call ptr @__errno_location() #7
  %45 = load i32, ptr %44, align 4
  store i32 %45, ptr %5, align 4
  br label %70

46:                                               ; preds = %4
  br label %47

47:                                               ; preds = %46
  br label %48

48:                                               ; preds = %58, %47
  %49 = load ptr, ptr %12, align 8
  %50 = call i32 @stat64(ptr noundef %49, ptr noundef %11) #6
  store i32 %50, ptr %10, align 4
  br label %51

51:                                               ; preds = %48
  %52 = load i32, ptr %10, align 4
  %53 = icmp eq i32 %52, -1
  br i1 %53, label %54, label %58

54:                                               ; preds = %51
  %55 = call ptr @__errno_location() #7
  %56 = load i32, ptr %55, align 4
  %57 = icmp eq i32 %56, 4
  br label %58

58:                                               ; preds = %54, %51
  %59 = phi i1 [ false, %51 ], [ %57, %54 ]
  br i1 %59, label %48, label %60, !llvm.loop !13

60:                                               ; preds = %58
  br label %61

61:                                               ; preds = %60
  %62 = load i32, ptr %10, align 4
  %63 = icmp eq i32 %62, 0
  br i1 %63, label %64, label %67

64:                                               ; preds = %61
  %65 = load ptr, ptr %6, align 8
  %66 = load ptr, ptr %9, align 8
  call void @copy_stat_attributes(ptr noundef %65, ptr noundef %11, ptr noundef %66)
  store i32 0, ptr %5, align 4
  br label %70

67:                                               ; preds = %61
  %68 = call ptr @__errno_location() #7
  %69 = load i32, ptr %68, align 4
  store i32 %69, ptr %5, align 4
  br label %70

70:                                               ; preds = %67, %64, %43, %40
  %71 = load i32, ptr %5, align 4
  ret i32 %71
}