; Function Attrs: nounwind uwtable
define i32 @Java_sun_nio_fs_UnixNativeDispatcher_stat0(ptr noundef %0, ptr nocapture noundef readnone %1, i64 noundef %2, ptr noundef %3) local_unnamed_addr #0 {
  %5 = alloca %struct.stat, align 8
  %6 = alloca %struct.my_statx, align 8
  %7 = inttoptr i64 %2 to ptr
  %8 = load ptr, ptr @my_statx_func, align 8
  %.not = icmp eq ptr %8, null
  br i1 %.not, label %.preheader, label %.preheader15

.preheader15:                                     ; preds = %4, %11
  %9 = load ptr, ptr @my_statx_func, align 8, !noalias !12
  %10 = call i32 %9(i32 noundef -100, ptr noundef %7, i32 noundef 0, i32 noundef 4095, ptr noundef nonnull %6) #11
  switch i32 %10, label %.preheader15..critedge_crit_edge [
    i32 -1, label %11
    i32 0, label %15
  ]

.preheader15..critedge_crit_edge:                 ; preds = %.preheader15
  %.pre16 = tail call ptr @__errno_location() #12
  br label %.critedge

11:                                               ; preds = %.preheader15
  %12 = tail call ptr @__errno_location() #12
  %13 = load i32, ptr %12, align 4
  %14 = icmp eq i32 %13, 4
  br i1 %14, label %.preheader15, label %.critedge, !llvm.loop !16

15:                                               ; preds = %.preheader15
  call fastcc void @copy_statx_attributes(ptr noundef %0, ptr noundef nonnull %6, ptr noundef %3)
  br label %24

.critedge:                                        ; preds = %11, %.preheader15..critedge_crit_edge
  %.pre-phi17 = phi ptr [ %.pre16, %.preheader15..critedge_crit_edge ], [ %12, %11 ]
  %16 = load i32, ptr %.pre-phi17, align 4
  br label %24

.preheader:                                       ; preds = %4, %18
  %17 = call i32 @stat64(ptr noundef %7, ptr noundef nonnull %5) #11
  switch i32 %17, label %.preheader..critedge2_crit_edge [
    i32 -1, label %18
    i32 0, label %22
  ]

.preheader..critedge2_crit_edge:                  ; preds = %.preheader
  %.pre = tail call ptr @__errno_location() #12
  br label %.critedge2

18:                                               ; preds = %.preheader
  %19 = tail call ptr @__errno_location() #12
  %20 = load i32, ptr %19, align 4
  %21 = icmp eq i32 %20, 4
  br i1 %21, label %.preheader, label %.critedge2, !llvm.loop !17

22:                                               ; preds = %.preheader
  call fastcc void @copy_stat_attributes(ptr noundef %0, ptr noundef nonnull %5, ptr noundef %3)
  br label %24

.critedge2:                                       ; preds = %18, %.preheader..critedge2_crit_edge
  %.pre-phi = phi ptr [ %.pre, %.preheader..critedge2_crit_edge ], [ %19, %18 ]
  %23 = load i32, ptr %.pre-phi, align 4
  br label %24

24:                                               ; preds = %.critedge2, %22, %.critedge, %15
  %.0 = phi i32 [ 0, %15 ], [ %16, %.critedge ], [ 0, %22 ], [ %23, %.critedge2 ]
  ret i32 %.0
}